target datalayout = "e-m:e-p270:32:32-p271:32:32-p272:64:64-i64:64-i128:128-f80:128-n8:16:32:64-S128"
target triple = "x86_64-pc-linux-gnu"

%"class.rocksdb::PlainTableIndex" = type { i32, i32, i32, ptr, ptr }

; Function Attrs: inlinehint mustprogress nounwind uwtable
define linkonce_odr void @_ZN7rocksdb12GetUnalignedIjEEvPKT_PS1_(ptr noundef %0, ptr noundef %1) #1 comdat {
  %3 = alloca ptr, align 8
  %4 = alloca ptr, align 8
  store ptr %0, ptr %3, align 8, !tbaa !27
  store ptr %1, ptr %4, align 8, !tbaa !27
  %5 = load ptr, ptr %3, align 8, !tbaa !27
  %6 = load i32, ptr %5, align 4, !tbaa !29
  %7 = load ptr, ptr %4, align 8, !tbaa !27
  store i32 %6, ptr %7, align 4, !tbaa !29
  ret void
}

; Function Attrs: inlinehint mustprogress nounwind uwtable
define internal noundef i32 @_ZN7rocksdb12_GLOBAL__N_119GetBucketIdFromHashEjj(i32 noundef %0, i32 noundef %1) #1 {
  %3 = alloca i32, align 4
  %4 = alloca i32, align 4
  store i32 %0, ptr %3, align 4, !tbaa !29
  store i32 %1, ptr %4, align 4, !tbaa !29
  %5 = load i32, ptr %3, align 4, !tbaa !29
  %6 = load i32, ptr %4, align 4, !tbaa !29
  %7 = urem i32 %5, %6
  ret i32 %7
}

; Function Attrs: mustprogress uwtable
define noundef i32 @_ZNK7rocksdb15PlainTableIndex9GetOffsetEjPj(ptr noundef nonnull align 8 dereferenceable(32) %0, i32 noundef %1, ptr noundef %2) #4 align 2 {
  %4 = alloca i32, align 4
  %5 = alloca ptr, align 8
  %6 = alloca i32, align 4
  %7 = alloca ptr, align 8
  %8 = alloca i32, align 4
  %9 = alloca i32, align 4
  store ptr %0, ptr %5, align 8, !tbaa !17
  store i32 %1, ptr %6, align 4, !tbaa !29
  store ptr %2, ptr %7, align 8, !tbaa !27
  %10 = load ptr, ptr %5, align 8
  call void @llvm.lifetime.start.p0(i64 4, ptr %8) #7
  %11 = load i32, ptr %6, align 4, !tbaa !29
  %12 = getelementptr inbounds nuw %"class.rocksdb::PlainTableIndex", ptr %10, i32 0, i32 0
  %13 = load i32, ptr %12, align 8, !tbaa !19
  %14 = call noundef i32 @_ZN7rocksdb12_GLOBAL__N_119GetBucketIdFromHashEjj(i32 noundef %11, i32 noundef %13)
  store i32 %14, ptr %8, align 4, !tbaa !29
  %15 = getelementptr inbounds nuw %"class.rocksdb::PlainTableIndex", ptr %10, i32 0, i32 3
  %16 = load ptr, ptr %15, align 8, !tbaa !25
  %17 = load i32, ptr %8, align 4, !tbaa !29
  %18 = sext i32 %17 to i64
  %19 = getelementptr inbounds i32, ptr %16, i64 %18
  %20 = load ptr, ptr %7, align 8, !tbaa !27
  call void @_ZN7rocksdb12GetUnalignedIjEEvPKT_PS1_(ptr noundef %19, ptr noundef %20)
  %21 = load ptr, ptr %7, align 8, !tbaa !27
  %22 = load i32, ptr %21, align 4, !tbaa !29
  %23 = and i32 %22, -2147483648
  %24 = icmp eq i32 %23, -2147483648
  br i1 %24, label %25, label %29

25:                                               ; preds = %3
  %26 = load ptr, ptr %7, align 8, !tbaa !27
  %27 = load i32, ptr %26, align 4, !tbaa !29
  %28 = xor i32 %27, -2147483648
  store i32 %28, ptr %26, align 4, !tbaa !29
  store i32 2, ptr %4, align 4
  store i32 1, ptr %9, align 4
  br label %36

29:                                               ; preds = %3
  %30 = load ptr, ptr %7, align 8, !tbaa !27
  %31 = load i32, ptr %30, align 4, !tbaa !29
  %32 = zext i32 %31 to i64
  %33 = icmp uge i64 %32, 2147483647
  br i1 %33, label %34, label %35

34:                                               ; preds = %29
  store i32 0, ptr %4, align 4
  store i32 1, ptr %9, align 4
  br label %36

35:                                               ; preds = %29
  store i32 1, ptr %4, align 4
  store i32 1, ptr %9, align 4
  br label %36

36:                                               ; preds = %35, %34, %25
  call void @llvm.lifetime.end.p0(i64 4, ptr %8) #7
  %37 = load i32, ptr %4, align 4
  ret i32 %37
}