; Function Attrs: mustprogress nofree norecurse nosync nounwind willreturn memory(read, argmem: readwrite, inaccessiblemem: none) uwtable
define noundef range(i32 0, 3) i32 @_ZNK7rocksdb15PlainTableIndex9GetOffsetEjPj(ptr noundef nonnull readonly align 8 captures(none) dereferenceable(32) %0, i32 noundef %1, ptr noundef writeonly captures(none) initializes((0, 4)) %2) local_unnamed_addr #2 align 2 {
  %4 = load i32, ptr %0, align 8, !tbaa !15
  %5 = urem i32 %1, %4
  %6 = getelementptr inbounds nuw i8, ptr %0, i64 16
  %7 = load ptr, ptr %6, align 8, !tbaa !19
  %8 = sext i32 %5 to i64
  %9 = getelementptr inbounds i32, ptr %7, i64 %8
  %10 = load i32, ptr %9, align 4, !tbaa !7
  store i32 %10, ptr %2, align 4, !tbaa !7
  %.not = icmp sgt i32 %10, -1
  br i1 %.not, label %13, label %11

11:                                               ; preds = %3
  %12 = and i32 %10, 2147483647
  store i32 %12, ptr %2, align 4, !tbaa !7
  br label %15

13:                                               ; preds = %3
  %14 = icmp ne i32 %10, 2147483647
  %. = zext i1 %14 to i32
  br label %15

15:                                               ; preds = %13, %11
  %.0 = phi i32 [ 2, %11 ], [ %., %13 ]
  ret i32 %.0
}